target datalayout = "e-m:e-p270:32:32-p271:32:32-p272:64:64-i64:64-i128:128-f80:128-n8:16:32:64-S128"
target triple = "x86_64-pc-linux-gnu"

%struct._xmpp_attr_info = type { ptr, ptr, i8, i8, ptr, ptr }
%struct._packet_info = type { ptr, ptr, i32, i32, %struct.nstime_t, %struct.nstime_t, %struct.nstime_t, i8, ptr, ptr, ptr, ptr, %struct._address, %struct._address, %struct._address, %struct._address, %struct._address, %struct._address, i32, ptr, i8, [3 x i8], %struct.anon, i32, i32, i32, i32, ptr, i8, ptr, ptr, i16, i16, i32, i32, i16, i32, i32, ptr, ptr, ptr, i8, i8, i16, i16, i16, i32, i16, i16, ptr, ptr, ptr, ptr, ptr, i32, i32 }
%struct.nstime_t = type { i64, i32 }
%struct._address = type { i32, i32, ptr, ptr }
%struct.anon = type { i8, [3 x i8] }
%struct._xmpp_element_t = type { ptr, ptr, ptr, ptr, ptr, ptr, i32, i32, i8 }
%struct._xmpp_data_t = type { ptr, i32, i32 }

@.str.124 = private unnamed_addr constant [6 x i8] c"value\00", align 1
@hf_xmpp_presence_status = external global i32, align 4
@ett_xmpp_presence_status = external global i32, align 4
@.str.125 = private unnamed_addr constant [8 x i8] c"(empty)\00", align 1

; Function Attrs: null_pointer_is_valid sspstrong uwtable
define internal void @xmpp_presence_status(ptr noundef %0, ptr noundef %1, ptr noundef %2, ptr noundef %3) #0 {
  %5 = alloca ptr, align 8
  %6 = alloca ptr, align 8
  %7 = alloca ptr, align 8
  %8 = alloca ptr, align 8
  %9 = alloca ptr, align 8
  %10 = alloca ptr, align 8
  %11 = alloca [2 x %struct._xmpp_attr_info], align 16
  %12 = alloca ptr, align 8
  store ptr %0, ptr %5, align 8
  store ptr %1, ptr %6, align 8
  store ptr %2, ptr %7, align 8
  store ptr %3, ptr %8, align 8
  call void @llvm.lifetime.start.p0(i64 8, ptr %9) #6
  call void @llvm.lifetime.start.p0(i64 8, ptr %10) #6
  call void @llvm.lifetime.start.p0(i64 80, ptr %11) #6
  call void @llvm.memcpy.p0.p0.i64(ptr align 16 %11, ptr align 16 @__const.xmpp_presence_status.attrs_info, i64 80, i1 false)
  call void @llvm.lifetime.start.p0(i64 8, ptr %12) #6
  %13 = load ptr, ptr %5, align 8
  %14 = load i32, ptr @hf_xmpp_presence_status, align 4
  %15 = load ptr, ptr %6, align 8
  %16 = load ptr, ptr %8, align 8
  %17 = getelementptr inbounds nuw %struct._xmpp_element_t, ptr %16, i32 0, i32 6
  %18 = load i32, ptr %17, align 8
  %19 = load ptr, ptr %8, align 8
  %20 = getelementptr inbounds nuw %struct._xmpp_element_t, ptr %19, i32 0, i32 7
  %21 = load i32, ptr %20, align 4
  %22 = call ptr @proto_tree_add_item(ptr noundef %13, i32 noundef %14, ptr noundef %15, i32 noundef %18, i32 noundef %21, i32 noundef 0)
  store ptr %22, ptr %9, align 8
  %23 = load ptr, ptr %9, align 8
  %24 = load i32, ptr @ett_xmpp_presence_status, align 4
  %25 = call ptr @proto_item_add_subtree(ptr noundef %23, i32 noundef %24)
  store ptr %25, ptr %10, align 8
  %26 = load ptr, ptr %8, align 8
  %27 = getelementptr inbounds nuw %struct._xmpp_element_t, ptr %26, i32 0, i32 5
  %28 = load ptr, ptr %27, align 8
  %29 = icmp ne ptr %28, null
  br i1 %29, label %30, label %46

30:                                               ; preds = %4
  %31 = load ptr, ptr %7, align 8
  %32 = getelementptr inbounds nuw %struct._packet_info, ptr %31, i32 0, i32 51
  %33 = load ptr, ptr %32, align 8
  %34 = load ptr, ptr %8, align 8
  %35 = getelementptr inbounds nuw %struct._xmpp_element_t, ptr %34, i32 0, i32 5
  %36 = load ptr, ptr %35, align 8
  %37 = getelementptr inbounds nuw %struct._xmpp_data_t, ptr %36, i32 0, i32 0
  %38 = load ptr, ptr %37, align 8
  %39 = load ptr, ptr %8, align 8
  %40 = getelementptr inbounds nuw %struct._xmpp_element_t, ptr %39, i32 0, i32 6
  %41 = load i32, ptr %40, align 8
  %42 = load ptr, ptr %8, align 8
  %43 = getelementptr inbounds nuw %struct._xmpp_element_t, ptr %42, i32 0, i32 7
  %44 = load i32, ptr %43, align 4
  %45 = call ptr @xmpp_ep_init_attr_t(ptr noundef %33, ptr noundef %38, i32 noundef %41, i32 noundef %44)
  store ptr %45, ptr %12, align 8
  br label %57

46:                                               ; preds = %4
  %47 = load ptr, ptr %7, align 8
  %48 = getelementptr inbounds nuw %struct._packet_info, ptr %47, i32 0, i32 51
  %49 = load ptr, ptr %48, align 8
  %50 = load ptr, ptr %8, align 8
  %51 = getelementptr inbounds nuw %struct._xmpp_element_t, ptr %50, i32 0, i32 6
  %52 = load i32, ptr %51, align 8
  %53 = load ptr, ptr %8, align 8
  %54 = getelementptr inbounds nuw %struct._xmpp_element_t, ptr %53, i32 0, i32 7
  %55 = load i32, ptr %54, align 4
  %56 = call ptr @xmpp_ep_init_attr_t(ptr noundef %49, ptr noundef @.str.125, i32 noundef %52, i32 noundef %55)
  store ptr %56, ptr %12, align 8
  br label %57

57:                                               ; preds = %46, %30
  %58 = load ptr, ptr %8, align 8
  %59 = getelementptr inbounds nuw %struct._xmpp_element_t, ptr %58, i32 0, i32 3
  %60 = load ptr, ptr %59, align 8
  %61 = load ptr, ptr %12, align 8
  %62 = call i32 @g_hash_table_insert(ptr noundef %60, ptr noundef @.str.124, ptr noundef %61)
  %63 = load ptr, ptr %10, align 8
  %64 = load ptr, ptr %8, align 8
  %65 = load ptr, ptr %7, align 8
  %66 = load ptr, ptr %6, align 8
  %67 = getelementptr inbounds [2 x %struct._xmpp_attr_info], ptr %11, i64 0, i64 0
  call void @xmpp_display_attrs(ptr noundef %63, ptr noundef %64, ptr noundef %65, ptr noundef %66, ptr noundef %67, i32 noundef 2)
  %68 = load ptr, ptr %10, align 8
  %69 = load ptr, ptr %6, align 8
  %70 = load ptr, ptr %7, align 8
  %71 = load ptr, ptr %8, align 8
  call void @xmpp_unknown(ptr noundef %68, ptr noundef %69, ptr noundef %70, ptr noundef %71)
  call void @llvm.lifetime.end.p0(i64 8, ptr %12) #6
  call void @llvm.lifetime.end.p0(i64 80, ptr %11) #6
  call void @llvm.lifetime.end.p0(i64 8, ptr %10) #6
  call void @llvm.lifetime.end.p0(i64 8, ptr %9) #6
  ret void
}